target datalayout = "e-m:e-p270:32:32-p271:32:32-p272:64:64-i64:64-i128:128-f80:128-n8:16:32:64-S128"
target triple = "x86_64-pc-linux-gnu"

@hf_hdfsdata_tokenlen = internal global i32 0, align 4
@hf_hdfsdata_tokenid = internal global i32 0, align 4
@hf_hdfsdata_tokenpassword = internal global i32 0, align 4
@hf_hdfsdata_tokentype = internal global i32 0, align 4
@hf_hdfsdata_tokenservice = internal global i32 0, align 4

; Function Attrs: null_pointer_is_valid sspstrong uwtable
define internal void @dissect_access_tokens(ptr noundef %0, ptr noundef %1, ptr noundef %2) #0 {
  %4 = alloca ptr, align 8
  %5 = alloca ptr, align 8
  %6 = alloca ptr, align 8
  %7 = alloca i32, align 4
  store ptr %0, ptr %4, align 8
  store ptr %1, ptr %5, align 8
  store ptr %2, ptr %6, align 8
  call void @llvm.lifetime.start.p0(i64 4, ptr %7) #4
  store i32 0, ptr %7, align 4
  %8 = load ptr, ptr %4, align 8
  %9 = load ptr, ptr %6, align 8
  %10 = load i32, ptr %9, align 4
  %11 = call zeroext i8 @tvb_get_uint8(ptr noundef %8, i32 noundef %10)
  %12 = zext i8 %11 to i32
  store i32 %12, ptr %7, align 4
  %13 = load ptr, ptr %5, align 8
  %14 = load i32, ptr @hf_hdfsdata_tokenlen, align 4
  %15 = load ptr, ptr %4, align 8
  %16 = load ptr, ptr %6, align 8
  %17 = load i32, ptr %16, align 4
  %18 = call ptr @proto_tree_add_item(ptr noundef %13, i32 noundef %14, ptr noundef %15, i32 noundef %17, i32 noundef 1, i32 noundef 0)
  %19 = load ptr, ptr %6, align 8
  %20 = load i32, ptr %19, align 4
  %21 = add i32 %20, 1
  store i32 %21, ptr %19, align 4
  %22 = load ptr, ptr %5, align 8
  %23 = load i32, ptr @hf_hdfsdata_tokenid, align 4
  %24 = load ptr, ptr %4, align 8
  %25 = load ptr, ptr %6, align 8
  %26 = load i32, ptr %25, align 4
  %27 = load i32, ptr %7, align 4
  %28 = call ptr @proto_tree_add_item(ptr noundef %22, i32 noundef %23, ptr noundef %24, i32 noundef %26, i32 noundef %27, i32 noundef 0)
  %29 = load i32, ptr %7, align 4
  %30 = load ptr, ptr %6, align 8
  %31 = load i32, ptr %30, align 4
  %32 = add i32 %31, %29
  store i32 %32, ptr %30, align 4
  %33 = load ptr, ptr %4, align 8
  %34 = load ptr, ptr %6, align 8
  %35 = load i32, ptr %34, align 4
  %36 = call zeroext i8 @tvb_get_uint8(ptr noundef %33, i32 noundef %35)
  %37 = zext i8 %36 to i32
  store i32 %37, ptr %7, align 4
  %38 = load ptr, ptr %5, align 8
  %39 = load i32, ptr @hf_hdfsdata_tokenlen, align 4
  %40 = load ptr, ptr %4, align 8
  %41 = load ptr, ptr %6, align 8
  %42 = load i32, ptr %41, align 4
  %43 = call ptr @proto_tree_add_item(ptr noundef %38, i32 noundef %39, ptr noundef %40, i32 noundef %42, i32 noundef 1, i32 noundef 0)
  %44 = load ptr, ptr %6, align 8
  %45 = load i32, ptr %44, align 4
  %46 = add i32 %45, 1
  store i32 %46, ptr %44, align 4
  %47 = load ptr, ptr %5, align 8
  %48 = load i32, ptr @hf_hdfsdata_tokenpassword, align 4
  %49 = load ptr, ptr %4, align 8
  %50 = load ptr, ptr %6, align 8
  %51 = load i32, ptr %50, align 4
  %52 = load i32, ptr %7, align 4
  %53 = call ptr @proto_tree_add_item(ptr noundef %47, i32 noundef %48, ptr noundef %49, i32 noundef %51, i32 noundef %52, i32 noundef 0)
  %54 = load i32, ptr %7, align 4
  %55 = load ptr, ptr %6, align 8
  %56 = load i32, ptr %55, align 4
  %57 = add i32 %56, %54
  store i32 %57, ptr %55, align 4
  %58 = load ptr, ptr %4, align 8
  %59 = load ptr, ptr %6, align 8
  %60 = load i32, ptr %59, align 4
  %61 = call zeroext i8 @tvb_get_uint8(ptr noundef %58, i32 noundef %60)
  %62 = zext i8 %61 to i32
  store i32 %62, ptr %7, align 4
  %63 = load ptr, ptr %5, align 8
  %64 = load i32, ptr @hf_hdfsdata_tokenlen, align 4
  %65 = load ptr, ptr %4, align 8
  %66 = load ptr, ptr %6, align 8
  %67 = load i32, ptr %66, align 4
  %68 = call ptr @proto_tree_add_item(ptr noundef %63, i32 noundef %64, ptr noundef %65, i32 noundef %67, i32 noundef 1, i32 noundef 0)
  %69 = load ptr, ptr %6, align 8
  %70 = load i32, ptr %69, align 4
  %71 = add i32 %70, 1
  store i32 %71, ptr %69, align 4
  %72 = load ptr, ptr %5, align 8
  %73 = load i32, ptr @hf_hdfsdata_tokentype, align 4
  %74 = load ptr, ptr %4, align 8
  %75 = load ptr, ptr %6, align 8
  %76 = load i32, ptr %75, align 4
  %77 = load i32, ptr %7, align 4
  %78 = call ptr @proto_tree_add_item(ptr noundef %72, i32 noundef %73, ptr noundef %74, i32 noundef %76, i32 noundef %77, i32 noundef 0)
  %79 = load i32, ptr %7, align 4
  %80 = load ptr, ptr %6, align 8
  %81 = load i32, ptr %80, align 4
  %82 = add i32 %81, %79
  store i32 %82, ptr %80, align 4
  %83 = load ptr, ptr %4, align 8
  %84 = load ptr, ptr %6, align 8
  %85 = load i32, ptr %84, align 4
  %86 = call zeroext i8 @tvb_get_uint8(ptr noundef %83, i32 noundef %85)
  %87 = zext i8 %86 to i32
  store i32 %87, ptr %7, align 4
  %88 = load ptr, ptr %5, align 8
  %89 = load i32, ptr @hf_hdfsdata_tokenlen, align 4
  %90 = load ptr, ptr %4, align 8
  %91 = load ptr, ptr %6, align 8
  %92 = load i32, ptr %91, align 4
  %93 = call ptr @proto_tree_add_item(ptr noundef %88, i32 noundef %89, ptr noundef %90, i32 noundef %92, i32 noundef 1, i32 noundef 0)
  %94 = load ptr, ptr %6, align 8
  %95 = load i32, ptr %94, align 4
  %96 = add i32 %95, 1
  store i32 %96, ptr %94, align 4
  %97 = load ptr, ptr %5, align 8
  %98 = load i32, ptr @hf_hdfsdata_tokenservice, align 4
  %99 = load ptr, ptr %4, align 8
  %100 = load ptr, ptr %6, align 8
  %101 = load i32, ptr %100, align 4
  %102 = load i32, ptr %7, align 4
  %103 = call ptr @proto_tree_add_item(ptr noundef %97, i32 noundef %98, ptr noundef %99, i32 noundef %101, i32 noundef %102, i32 noundef 0)
  %104 = load i32, ptr %7, align 4
  %105 = load ptr, ptr %6, align 8
  %106 = load i32, ptr %105, align 4
  %107 = add i32 %106, %104
  store i32 %107, ptr %105, align 4
  call void @llvm.lifetime.end.p0(i64 4, ptr %7) #4
  ret void
}