; Function Attrs: null_pointer_is_valid sspstrong uwtable
define internal fastcc void @dissect_access_tokens(ptr noundef %0, ptr noundef %1, ptr noundef captures(none) %2) unnamed_addr #0 {
  %4 = load i32, ptr %2, align 4
  %5 = tail call zeroext i8 @tvb_get_uint8(ptr noundef %0, i32 noundef %4)
  %6 = zext i8 %5 to i32
  %7 = load i32, ptr @hf_hdfsdata_tokenlen, align 4
  %8 = load i32, ptr %2, align 4
  %9 = tail call ptr @proto_tree_add_item(ptr noundef %1, i32 noundef %7, ptr noundef %0, i32 noundef %8, i32 noundef 1, i32 noundef 0)
  %10 = load i32, ptr %2, align 4
  %11 = add i32 %10, 1
  store i32 %11, ptr %2, align 4
  %12 = load i32, ptr @hf_hdfsdata_tokenid, align 4
  %13 = tail call ptr @proto_tree_add_item(ptr noundef %1, i32 noundef %12, ptr noundef %0, i32 noundef %11, i32 noundef %6, i32 noundef 0)
  %14 = load i32, ptr %2, align 4
  %15 = add i32 %14, %6
  store i32 %15, ptr %2, align 4
  %16 = tail call zeroext i8 @tvb_get_uint8(ptr noundef %0, i32 noundef %15)
  %17 = zext i8 %16 to i32
  %18 = load i32, ptr @hf_hdfsdata_tokenlen, align 4
  %19 = load i32, ptr %2, align 4
  %20 = tail call ptr @proto_tree_add_item(ptr noundef %1, i32 noundef %18, ptr noundef %0, i32 noundef %19, i32 noundef 1, i32 noundef 0)
  %21 = load i32, ptr %2, align 4
  %22 = add i32 %21, 1
  store i32 %22, ptr %2, align 4
  %23 = load i32, ptr @hf_hdfsdata_tokenpassword, align 4
  %24 = tail call ptr @proto_tree_add_item(ptr noundef %1, i32 noundef %23, ptr noundef %0, i32 noundef %22, i32 noundef %17, i32 noundef 0)
  %25 = load i32, ptr %2, align 4
  %26 = add i32 %25, %17
  store i32 %26, ptr %2, align 4
  %27 = tail call zeroext i8 @tvb_get_uint8(ptr noundef %0, i32 noundef %26)
  %28 = zext i8 %27 to i32
  %29 = load i32, ptr @hf_hdfsdata_tokenlen, align 4
  %30 = load i32, ptr %2, align 4
  %31 = tail call ptr @proto_tree_add_item(ptr noundef %1, i32 noundef %29, ptr noundef %0, i32 noundef %30, i32 noundef 1, i32 noundef 0)
  %32 = load i32, ptr %2, align 4
  %33 = add i32 %32, 1
  store i32 %33, ptr %2, align 4
  %34 = load i32, ptr @hf_hdfsdata_tokentype, align 4
  %35 = tail call ptr @proto_tree_add_item(ptr noundef %1, i32 noundef %34, ptr noundef %0, i32 noundef %33, i32 noundef %28, i32 noundef 0)
  %36 = load i32, ptr %2, align 4
  %37 = add i32 %36, %28
  store i32 %37, ptr %2, align 4
  %38 = tail call zeroext i8 @tvb_get_uint8(ptr noundef %0, i32 noundef %37)
  %39 = zext i8 %38 to i32
  %40 = load i32, ptr @hf_hdfsdata_tokenlen, align 4
  %41 = load i32, ptr %2, align 4
  %42 = tail call ptr @proto_tree_add_item(ptr noundef %1, i32 noundef %40, ptr noundef %0, i32 noundef %41, i32 noundef 1, i32 noundef 0)
  %43 = load i32, ptr %2, align 4
  %44 = add i32 %43, 1
  store i32 %44, ptr %2, align 4
  %45 = load i32, ptr @hf_hdfsdata_tokenservice, align 4
  %46 = tail call ptr @proto_tree_add_item(ptr noundef %1, i32 noundef %45, ptr noundef %0, i32 noundef %44, i32 noundef %39, i32 noundef 0)
  %47 = load i32, ptr %2, align 4
  %48 = add i32 %47, %39
  store i32 %48, ptr %2, align 4
  ret void
}